; Function Attrs: nounwind uwtable
define void @initInetAddressIDs(ptr noundef %0) local_unnamed_addr #1 {
  %.b = load i1, ptr @initialized, align 4
  br i1 %.b, label %18, label %2

2:                                                ; preds = %1
  tail call void @Java_java_net_InetAddress_init(ptr noundef %0, ptr noundef null) #7
  %3 = load ptr, ptr %0, align 8
  %4 = getelementptr inbounds i8, ptr %3, i64 1824
  %5 = load ptr, ptr %4, align 8
  %6 = tail call zeroext i8 %5(ptr noundef nonnull %0) #7
  %.not = icmp eq i8 %6, 0
  br i1 %.not, label %7, label %18

7:                                                ; preds = %2
  tail call void @Java_java_net_Inet4Address_init(ptr noundef nonnull %0, ptr noundef null) #7
  %8 = load ptr, ptr %0, align 8
  %9 = getelementptr inbounds i8, ptr %8, i64 1824
  %10 = load ptr, ptr %9, align 8
  %11 = tail call zeroext i8 %10(ptr noundef nonnull %0) #7
  %.not9 = icmp eq i8 %11, 0
  br i1 %.not9, label %12, label %18

12:                                               ; preds = %7
  tail call void @Java_java_net_Inet6Address_init(ptr noundef nonnull %0, ptr noundef null) #7
  %13 = load ptr, ptr %0, align 8
  %14 = getelementptr inbounds i8, ptr %13, i64 1824
  %15 = load ptr, ptr %14, align 8
  %16 = tail call zeroext i8 %15(ptr noundef nonnull %0) #7
  %.not10 = icmp eq i8 %16, 0
  br i1 %.not10, label %17, label %18

17:                                               ; preds = %12
  store i1 true, ptr @initialized, align 4
  br label %18

18:                                               ; preds = %12, %7, %2, %17, %1
  ret void
}